target datalayout = "e-m:e-p270:32:32-p271:32:32-p272:64:64-i64:64-i128:128-f80:128-n8:16:32:64-S128"
target triple = "x86_64-pc-linux-gnu"

%struct._ikev2_encr_alg_spec = type { i32, i32, i32, i32, i32, i32, i32, i32 }
%struct._ikev2_auth_alg_spec = type { i32, i32, i32, i32, i32, i32 }
%struct._ikev2_uat_data = type { %struct._ikev2_uat_data_key, i32, i32, ptr, i32, ptr, i32, ptr, i32, ptr, i32, ptr, ptr }
%struct._ikev2_uat_data_key = type { ptr, i32, ptr, i32 }

@.str.1687 = private unnamed_addr constant [65 x i8] c"Length of Initiator's SPI must be %d octets (%d hex characters).\00", align 1
@.str.1688 = private unnamed_addr constant [65 x i8] c"Length of Responder's SPI must be %d octets (%d hex characters).\00", align 1
@.str.1689 = private unnamed_addr constant [46 x i8] c"Couldn't get IKEv2 encryption algorithm spec.\00", align 1
@.str.1690 = private unnamed_addr constant [50 x i8] c"Couldn't get IKEv2 authentication algorithm spec.\00", align 1
@.str.1691 = private unnamed_addr constant [78 x i8] c"Selected encryption_algorithm %s requires selecting NONE integrity algorithm.\00", align 1
@.str.1692 = private unnamed_addr constant [9 x i8] c"other-%d\00", align 1
@.str.1693 = private unnamed_addr constant [108 x i8] c"Length of SK_ei (%u octets) does not match the key length (%u octets) of the selected encryption algorithm.\00", align 1
@.str.1694 = private unnamed_addr constant [108 x i8] c"Length of SK_er (%u octets) does not match the key length (%u octets) of the selected encryption algorithm.\00", align 1
@.str.1695 = private unnamed_addr constant [107 x i8] c"Length of SK_ai (%u octets) does not match the key length (%u octets) of the selected integrity algorithm.\00", align 1
@.str.1696 = private unnamed_addr constant [107 x i8] c"Length of SK_ar (%u octets) does not match the key length (%u octets) of the selected integrity algorithm.\00", align 1

; Function Attrs: nounwind null_pointer_is_valid sspstrong uwtable
define internal ptr @ikev2_decrypt_find_auth_spec(i32 noundef %0) #11 {
  %2 = alloca ptr, align 8
  %3 = alloca i32, align 4
  %4 = alloca ptr, align 8
  %5 = alloca i32, align 4
  store i32 %0, ptr %3, align 4
  call void @llvm.lifetime.start.p0(i64 8, ptr %4) #16
  store ptr @ikev2_auth_algs, ptr %4, align 8
  br label %6

6:                                                ; preds = %20, %1
  %7 = load ptr, ptr %4, align 8
  %8 = getelementptr inbounds nuw %struct._ikev2_auth_alg_spec, ptr %7, i32 0, i32 0
  %9 = load i32, ptr %8, align 4
  %10 = icmp ne i32 %9, 0
  br i1 %10, label %11, label %23

11:                                               ; preds = %6
  %12 = load ptr, ptr %4, align 8
  %13 = getelementptr inbounds nuw %struct._ikev2_auth_alg_spec, ptr %12, i32 0, i32 0
  %14 = load i32, ptr %13, align 4
  %15 = load i32, ptr %3, align 4
  %16 = icmp eq i32 %14, %15
  br i1 %16, label %17, label %19

17:                                               ; preds = %11
  %18 = load ptr, ptr %4, align 8
  store ptr %18, ptr %2, align 8
  store i32 1, ptr %5, align 4
  br label %24

19:                                               ; preds = %11
  br label %20

20:                                               ; preds = %19
  %21 = load ptr, ptr %4, align 8
  %22 = getelementptr %struct._ikev2_auth_alg_spec, ptr %21, i32 1
  store ptr %22, ptr %4, align 8
  br label %6, !llvm.loop !51

23:                                               ; preds = %6
  store ptr null, ptr %2, align 8
  store i32 1, ptr %5, align 4
  br label %24

24:                                               ; preds = %23, %17
  call void @llvm.lifetime.end.p0(i64 8, ptr %4) #16
  %25 = load ptr, ptr %2, align 8
  ret ptr %25
}

; Function Attrs: nounwind null_pointer_is_valid sspstrong uwtable
define internal ptr @ikev2_decrypt_find_encr_spec(i32 noundef %0) #11 {
  %2 = alloca ptr, align 8
  %3 = alloca i32, align 4
  %4 = alloca ptr, align 8
  %5 = alloca i32, align 4
  store i32 %0, ptr %3, align 4
  call void @llvm.lifetime.start.p0(i64 8, ptr %4) #16
  store ptr @ikev2_encr_algs, ptr %4, align 8
  br label %6

6:                                                ; preds = %20, %1
  %7 = load ptr, ptr %4, align 8
  %8 = getelementptr inbounds nuw %struct._ikev2_encr_alg_spec, ptr %7, i32 0, i32 0
  %9 = load i32, ptr %8, align 4
  %10 = icmp ne i32 %9, 0
  br i1 %10, label %11, label %23

11:                                               ; preds = %6
  %12 = load ptr, ptr %4, align 8
  %13 = getelementptr inbounds nuw %struct._ikev2_encr_alg_spec, ptr %12, i32 0, i32 0
  %14 = load i32, ptr %13, align 4
  %15 = load i32, ptr %3, align 4
  %16 = icmp eq i32 %14, %15
  br i1 %16, label %17, label %19

17:                                               ; preds = %11
  %18 = load ptr, ptr %4, align 8
  store ptr %18, ptr %2, align 8
  store i32 1, ptr %5, align 4
  br label %24

19:                                               ; preds = %11
  br label %20

20:                                               ; preds = %19
  %21 = load ptr, ptr %4, align 8
  %22 = getelementptr %struct._ikev2_encr_alg_spec, ptr %21, i32 1
  store ptr %22, ptr %4, align 8
  br label %6, !llvm.loop !50

23:                                               ; preds = %6
  store ptr null, ptr %2, align 8
  store i32 1, ptr %5, align 4
  br label %24

24:                                               ; preds = %23, %17
  call void @llvm.lifetime.end.p0(i64 8, ptr %4) #16
  %25 = load ptr, ptr %2, align 8
  ret ptr %25
}

; Function Attrs: null_pointer_is_valid sspstrong uwtable
define internal zeroext i1 @ikev2_uat_data_update_cb(ptr noundef %0, ptr noundef %1) #0 {
  %3 = alloca i1, align 1
  %4 = alloca ptr, align 8
  %5 = alloca ptr, align 8
  %6 = alloca ptr, align 8
  %7 = alloca i32, align 4
  store ptr %0, ptr %4, align 8
  store ptr %1, ptr %5, align 8
  call void @llvm.lifetime.start.p0(i64 8, ptr %6) #16
  %8 = load ptr, ptr %4, align 8
  store ptr %8, ptr %6, align 8
  %9 = load ptr, ptr %6, align 8
  %10 = getelementptr inbounds nuw %struct._ikev2_uat_data, ptr %9, i32 0, i32 0
  %11 = getelementptr inbounds nuw %struct._ikev2_uat_data_key, ptr %10, i32 0, i32 1
  %12 = load i32, ptr %11, align 8
  %13 = icmp ne i32 %12, 8
  br i1 %13, label %14, label %17

14:                                               ; preds = %2
  %15 = call noalias ptr (ptr, ptr, ...) @wmem_strdup_printf(ptr noundef null, ptr noundef @.str.1687, i32 noundef 8, i32 noundef 16)
  %16 = load ptr, ptr %5, align 8
  store ptr %15, ptr %16, align 8
  store i1 false, ptr %3, align 1
  store i32 1, ptr %7, align 4
  br label %152

17:                                               ; preds = %2
  %18 = load ptr, ptr %6, align 8
  %19 = getelementptr inbounds nuw %struct._ikev2_uat_data, ptr %18, i32 0, i32 0
  %20 = getelementptr inbounds nuw %struct._ikev2_uat_data_key, ptr %19, i32 0, i32 3
  %21 = load i32, ptr %20, align 8
  %22 = icmp ne i32 %21, 8
  br i1 %22, label %23, label %26

23:                                               ; preds = %17
  %24 = call noalias ptr (ptr, ptr, ...) @wmem_strdup_printf(ptr noundef null, ptr noundef @.str.1688, i32 noundef 8, i32 noundef 16)
  %25 = load ptr, ptr %5, align 8
  store ptr %24, ptr %25, align 8
  store i1 false, ptr %3, align 1
  store i32 1, ptr %7, align 4
  br label %152

26:                                               ; preds = %17
  %27 = load ptr, ptr %6, align 8
  %28 = getelementptr inbounds nuw %struct._ikev2_uat_data, ptr %27, i32 0, i32 1
  %29 = load i32, ptr %28, align 8
  %30 = call ptr @ikev2_decrypt_find_encr_spec(i32 noundef %29)
  %31 = load ptr, ptr %6, align 8
  %32 = getelementptr inbounds nuw %struct._ikev2_uat_data, ptr %31, i32 0, i32 11
  store ptr %30, ptr %32, align 8
  %33 = icmp eq ptr %30, null
  br i1 %33, label %34, label %35

34:                                               ; preds = %26
  call void (ptr, ...) @proto_report_dissector_bug(ptr noundef @.str.1689) #20
  unreachable

35:                                               ; preds = %26
  %36 = load ptr, ptr %6, align 8
  %37 = getelementptr inbounds nuw %struct._ikev2_uat_data, ptr %36, i32 0, i32 2
  %38 = load i32, ptr %37, align 4
  %39 = call ptr @ikev2_decrypt_find_auth_spec(i32 noundef %38)
  %40 = load ptr, ptr %6, align 8
  %41 = getelementptr inbounds nuw %struct._ikev2_uat_data, ptr %40, i32 0, i32 12
  store ptr %39, ptr %41, align 8
  %42 = icmp eq ptr %39, null
  br i1 %42, label %43, label %44

43:                                               ; preds = %35
  call void (ptr, ...) @proto_report_dissector_bug(ptr noundef @.str.1690) #20
  unreachable

44:                                               ; preds = %35
  %45 = load ptr, ptr %6, align 8
  %46 = getelementptr inbounds nuw %struct._ikev2_uat_data, ptr %45, i32 0, i32 11
  %47 = load ptr, ptr %46, align 8
  %48 = getelementptr inbounds nuw %struct._ikev2_encr_alg_spec, ptr %47, i32 0, i32 7
  %49 = load i32, ptr %48, align 4
  %50 = icmp ne i32 %49, 0
  br i1 %50, label %51, label %67

51:                                               ; preds = %44
  %52 = load ptr, ptr %6, align 8
  %53 = getelementptr inbounds nuw %struct._ikev2_uat_data, ptr %52, i32 0, i32 12
  %54 = load ptr, ptr %53, align 8
  %55 = getelementptr inbounds nuw %struct._ikev2_auth_alg_spec, ptr %54, i32 0, i32 0
  %56 = load i32, ptr %55, align 4
  %57 = icmp ne i32 %56, 1
  br i1 %57, label %58, label %67

58:                                               ; preds = %51
  %59 = load ptr, ptr %6, align 8
  %60 = getelementptr inbounds nuw %struct._ikev2_uat_data, ptr %59, i32 0, i32 11
  %61 = load ptr, ptr %60, align 8
  %62 = getelementptr inbounds nuw %struct._ikev2_encr_alg_spec, ptr %61, i32 0, i32 0
  %63 = load i32, ptr %62, align 4
  %64 = call ptr @val_to_str(i32 noundef %63, ptr noundef @vs_ikev2_encr_algs, ptr noundef @.str.1692)
  %65 = call noalias ptr (ptr, ptr, ...) @wmem_strdup_printf(ptr noundef null, ptr noundef @.str.1691, ptr noundef %64)
  %66 = load ptr, ptr %5, align 8
  store ptr %65, ptr %66, align 8
  store i1 false, ptr %3, align 1
  store i32 1, ptr %7, align 4
  br label %152

67:                                               ; preds = %51, %44
  %68 = load ptr, ptr %6, align 8
  %69 = getelementptr inbounds nuw %struct._ikev2_uat_data, ptr %68, i32 0, i32 4
  %70 = load i32, ptr %69, align 8
  %71 = load ptr, ptr %6, align 8
  %72 = getelementptr inbounds nuw %struct._ikev2_uat_data, ptr %71, i32 0, i32 11
  %73 = load ptr, ptr %72, align 8
  %74 = getelementptr inbounds nuw %struct._ikev2_encr_alg_spec, ptr %73, i32 0, i32 1
  %75 = load i32, ptr %74, align 4
  %76 = icmp ne i32 %70, %75
  br i1 %76, label %77, label %88

77:                                               ; preds = %67
  %78 = load ptr, ptr %6, align 8
  %79 = getelementptr inbounds nuw %struct._ikev2_uat_data, ptr %78, i32 0, i32 4
  %80 = load i32, ptr %79, align 8
  %81 = load ptr, ptr %6, align 8
  %82 = getelementptr inbounds nuw %struct._ikev2_uat_data, ptr %81, i32 0, i32 11
  %83 = load ptr, ptr %82, align 8
  %84 = getelementptr inbounds nuw %struct._ikev2_encr_alg_spec, ptr %83, i32 0, i32 1
  %85 = load i32, ptr %84, align 4
  %86 = call noalias ptr (ptr, ptr, ...) @wmem_strdup_printf(ptr noundef null, ptr noundef @.str.1693, i32 noundef %80, i32 noundef %85)
  %87 = load ptr, ptr %5, align 8
  store ptr %86, ptr %87, align 8
  store i1 false, ptr %3, align 1
  store i32 1, ptr %7, align 4
  br label %152

88:                                               ; preds = %67
  %89 = load ptr, ptr %6, align 8
  %90 = getelementptr inbounds nuw %struct._ikev2_uat_data, ptr %89, i32 0, i32 6
  %91 = load i32, ptr %90, align 8
  %92 = load ptr, ptr %6, align 8
  %93 = getelementptr inbounds nuw %struct._ikev2_uat_data, ptr %92, i32 0, i32 11
  %94 = load ptr, ptr %93, align 8
  %95 = getelementptr inbounds nuw %struct._ikev2_encr_alg_spec, ptr %94, i32 0, i32 1
  %96 = load i32, ptr %95, align 4
  %97 = icmp ne i32 %91, %96
  br i1 %97, label %98, label %109

98:                                               ; preds = %88
  %99 = load ptr, ptr %6, align 8
  %100 = getelementptr inbounds nuw %struct._ikev2_uat_data, ptr %99, i32 0, i32 6
  %101 = load i32, ptr %100, align 8
  %102 = load ptr, ptr %6, align 8
  %103 = getelementptr inbounds nuw %struct._ikev2_uat_data, ptr %102, i32 0, i32 11
  %104 = load ptr, ptr %103, align 8
  %105 = getelementptr inbounds nuw %struct._ikev2_encr_alg_spec, ptr %104, i32 0, i32 1
  %106 = load i32, ptr %105, align 4
  %107 = call noalias ptr (ptr, ptr, ...) @wmem_strdup_printf(ptr noundef null, ptr noundef @.str.1694, i32 noundef %101, i32 noundef %106)
  %108 = load ptr, ptr %5, align 8
  store ptr %107, ptr %108, align 8
  store i1 false, ptr %3, align 1
  store i32 1, ptr %7, align 4
  br label %152

109:                                              ; preds = %88
  %110 = load ptr, ptr %6, align 8
  %111 = getelementptr inbounds nuw %struct._ikev2_uat_data, ptr %110, i32 0, i32 8
  %112 = load i32, ptr %111, align 8
  %113 = load ptr, ptr %6, align 8
  %114 = getelementptr inbounds nuw %struct._ikev2_uat_data, ptr %113, i32 0, i32 12
  %115 = load ptr, ptr %114, align 8
  %116 = getelementptr inbounds nuw %struct._ikev2_auth_alg_spec, ptr %115, i32 0, i32 2
  %117 = load i32, ptr %116, align 4
  %118 = icmp ne i32 %112, %117
  br i1 %118, label %119, label %130

119:                                              ; preds = %109
  %120 = load ptr, ptr %6, align 8
  %121 = getelementptr inbounds nuw %struct._ikev2_uat_data, ptr %120, i32 0, i32 8
  %122 = load i32, ptr %121, align 8
  %123 = load ptr, ptr %6, align 8
  %124 = getelementptr inbounds nuw %struct._ikev2_uat_data, ptr %123, i32 0, i32 12
  %125 = load ptr, ptr %124, align 8
  %126 = getelementptr inbounds nuw %struct._ikev2_auth_alg_spec, ptr %125, i32 0, i32 2
  %127 = load i32, ptr %126, align 4
  %128 = call noalias ptr (ptr, ptr, ...) @wmem_strdup_printf(ptr noundef null, ptr noundef @.str.1695, i32 noundef %122, i32 noundef %127)
  %129 = load ptr, ptr %5, align 8
  store ptr %128, ptr %129, align 8
  store i1 false, ptr %3, align 1
  store i32 1, ptr %7, align 4
  br label %152

130:                                              ; preds = %109
  %131 = load ptr, ptr %6, align 8
  %132 = getelementptr inbounds nuw %struct._ikev2_uat_data, ptr %131, i32 0, i32 10
  %133 = load i32, ptr %132, align 8
  %134 = load ptr, ptr %6, align 8
  %135 = getelementptr inbounds nuw %struct._ikev2_uat_data, ptr %134, i32 0, i32 12
  %136 = load ptr, ptr %135, align 8
  %137 = getelementptr inbounds nuw %struct._ikev2_auth_alg_spec, ptr %136, i32 0, i32 2
  %138 = load i32, ptr %137, align 4
  %139 = icmp ne i32 %133, %138
  br i1 %139, label %140, label %151

140:                                              ; preds = %130
  %141 = load ptr, ptr %6, align 8
  %142 = getelementptr inbounds nuw %struct._ikev2_uat_data, ptr %141, i32 0, i32 10
  %143 = load i32, ptr %142, align 8
  %144 = load ptr, ptr %6, align 8
  %145 = getelementptr inbounds nuw %struct._ikev2_uat_data, ptr %144, i32 0, i32 12
  %146 = load ptr, ptr %145, align 8
  %147 = getelementptr inbounds nuw %struct._ikev2_auth_alg_spec, ptr %146, i32 0, i32 2
  %148 = load i32, ptr %147, align 4
  %149 = call noalias ptr (ptr, ptr, ...) @wmem_strdup_printf(ptr noundef null, ptr noundef @.str.1696, i32 noundef %143, i32 noundef %148)
  %150 = load ptr, ptr %5, align 8
  store ptr %149, ptr %150, align 8
  store i1 false, ptr %3, align 1
  store i32 1, ptr %7, align 4
  br label %152

151:                                              ; preds = %130
  store i1 true, ptr %3, align 1
  store i32 1, ptr %7, align 4
  br label %152

152:                                              ; preds = %151, %140, %119, %98, %77, %58, %23, %14
  call void @llvm.lifetime.end.p0(i64 8, ptr %6) #16
  %153 = load i1, ptr %3, align 1
  ret i1 %153
}