; Function Attrs: null_pointer_is_valid sspstrong uwtable
define internal noundef zeroext i1 @ikev2_uat_data_update_cb(ptr noundef captures(none) %0, ptr noundef writeonly captures(none) %1) #0 {
  %3 = getelementptr inbounds nuw i8, ptr %0, i64 8
  %4 = load i32, ptr %3, align 8
  %.not = icmp eq i32 %4, 8
  br i1 %.not, label %7, label %5

5:                                                ; preds = %2
  %6 = tail call noalias ptr (ptr, ptr, ...) @wmem_strdup_printf(ptr noundef null, ptr noundef nonnull @.str.1687, i32 noundef 8, i32 noundef 16)
  br label %.sink.split

7:                                                ; preds = %2
  %8 = getelementptr inbounds nuw i8, ptr %0, i64 24
  %9 = load i32, ptr %8, align 8
  %.not42 = icmp eq i32 %9, 8
  br i1 %.not42, label %12, label %10

10:                                               ; preds = %7
  %11 = tail call noalias ptr (ptr, ptr, ...) @wmem_strdup_printf(ptr noundef null, ptr noundef nonnull @.str.1688, i32 noundef 8, i32 noundef 16)
  br label %.sink.split

12:                                               ; preds = %7
  %13 = getelementptr inbounds nuw i8, ptr %0, i64 32
  %14 = load i32, ptr %13, align 8
  %15 = load i32, ptr @ikev2_encr_algs, align 16
  %.not7.i = icmp eq i32 %15, 0
  br i1 %.not7.i, label %ikev2_decrypt_find_encr_spec.exit.thread, label %.lr.ph.i

.lr.ph.i:                                         ; preds = %12, %18
  %16 = phi i32 [ %20, %18 ], [ %15, %12 ]
  %.08.i = phi ptr [ %19, %18 ], [ @ikev2_encr_algs, %12 ]
  %17 = icmp eq i32 %16, %14
  br i1 %17, label %ikev2_decrypt_find_encr_spec.exit, label %18

18:                                               ; preds = %.lr.ph.i
  %19 = getelementptr i8, ptr %.08.i, i64 32
  %20 = load i32, ptr %19, align 4
  %.not.i = icmp eq i32 %20, 0
  br i1 %.not.i, label %ikev2_decrypt_find_encr_spec.exit.thread, label %.lr.ph.i, !llvm.loop !46

ikev2_decrypt_find_encr_spec.exit.thread:         ; preds = %18, %12
  %21 = getelementptr inbounds nuw i8, ptr %0, i64 104
  store ptr null, ptr %21, align 8
  br label %24

ikev2_decrypt_find_encr_spec.exit:                ; preds = %.lr.ph.i
  %22 = getelementptr inbounds nuw i8, ptr %0, i64 104
  store ptr %.08.i, ptr %22, align 8
  %23 = icmp eq ptr %.08.i, null
  br i1 %23, label %24, label %25

24:                                               ; preds = %ikev2_decrypt_find_encr_spec.exit.thread, %ikev2_decrypt_find_encr_spec.exit
  tail call void (ptr, ...) @proto_report_dissector_bug(ptr noundef nonnull @.str.1689) #25
  unreachable

25:                                               ; preds = %ikev2_decrypt_find_encr_spec.exit
  %26 = getelementptr inbounds nuw i8, ptr %0, i64 36
  %27 = load i32, ptr %26, align 4
  %28 = load i32, ptr @ikev2_auth_algs, align 16
  %.not7.i49 = icmp eq i32 %28, 0
  br i1 %.not7.i49, label %ikev2_decrypt_find_auth_spec.exit.thread, label %.lr.ph.i50

.lr.ph.i50:                                       ; preds = %25, %31
  %29 = phi i32 [ %33, %31 ], [ %28, %25 ]
  %.08.i51 = phi ptr [ %32, %31 ], [ @ikev2_auth_algs, %25 ]
  %30 = icmp eq i32 %29, %27
  br i1 %30, label %ikev2_decrypt_find_auth_spec.exit, label %31

31:                                               ; preds = %.lr.ph.i50
  %32 = getelementptr i8, ptr %.08.i51, i64 24
  %33 = load i32, ptr %32, align 4
  %.not.i52 = icmp eq i32 %33, 0
  br i1 %.not.i52, label %ikev2_decrypt_find_auth_spec.exit.thread, label %.lr.ph.i50, !llvm.loop !47

ikev2_decrypt_find_auth_spec.exit.thread:         ; preds = %31, %25
  %34 = getelementptr inbounds nuw i8, ptr %0, i64 112
  store ptr null, ptr %34, align 8
  br label %37

ikev2_decrypt_find_auth_spec.exit:                ; preds = %.lr.ph.i50
  %35 = getelementptr inbounds nuw i8, ptr %0, i64 112
  store ptr %.08.i51, ptr %35, align 8
  %36 = icmp eq ptr %.08.i51, null
  br i1 %36, label %37, label %38

37:                                               ; preds = %ikev2_decrypt_find_auth_spec.exit.thread, %ikev2_decrypt_find_auth_spec.exit
  tail call void (ptr, ...) @proto_report_dissector_bug(ptr noundef nonnull @.str.1690) #25
  unreachable

38:                                               ; preds = %ikev2_decrypt_find_auth_spec.exit
  %39 = getelementptr inbounds nuw i8, ptr %.08.i, i64 28
  %40 = load i32, ptr %39, align 4
  %.not43 = icmp eq i32 %40, 0
  br i1 %.not43, label %47, label %41

41:                                               ; preds = %38
  %42 = load i32, ptr %.08.i51, align 4
  %.not44 = icmp eq i32 %42, 1
  br i1 %.not44, label %47, label %43

43:                                               ; preds = %41
  %44 = load i32, ptr %.08.i, align 4
  %45 = tail call ptr @val_to_str(i32 noundef %44, ptr noundef nonnull @vs_ikev2_encr_algs, ptr noundef nonnull @.str.1692)
  %46 = tail call noalias ptr (ptr, ptr, ...) @wmem_strdup_printf(ptr noundef null, ptr noundef nonnull @.str.1691, ptr noundef %45)
  br label %.sink.split

47:                                               ; preds = %41, %38
  %48 = getelementptr inbounds nuw i8, ptr %0, i64 48
  %49 = load i32, ptr %48, align 8
  %50 = getelementptr inbounds nuw i8, ptr %.08.i, i64 4
  %51 = load i32, ptr %50, align 4
  %.not45 = icmp eq i32 %49, %51
  br i1 %.not45, label %54, label %52

52:                                               ; preds = %47
  %53 = tail call noalias ptr (ptr, ptr, ...) @wmem_strdup_printf(ptr noundef null, ptr noundef nonnull @.str.1693, i32 noundef %49, i32 noundef %51)
  br label %.sink.split

54:                                               ; preds = %47
  %55 = getelementptr inbounds nuw i8, ptr %0, i64 64
  %56 = load i32, ptr %55, align 8
  %.not46 = icmp eq i32 %56, %49
  br i1 %.not46, label %59, label %57

57:                                               ; preds = %54
  %58 = tail call noalias ptr (ptr, ptr, ...) @wmem_strdup_printf(ptr noundef null, ptr noundef nonnull @.str.1694, i32 noundef %56, i32 noundef %49)
  br label %.sink.split

59:                                               ; preds = %54
  %60 = getelementptr inbounds nuw i8, ptr %0, i64 80
  %61 = load i32, ptr %60, align 8
  %62 = getelementptr inbounds nuw i8, ptr %.08.i51, i64 8
  %63 = load i32, ptr %62, align 4
  %.not47 = icmp eq i32 %61, %63
  br i1 %.not47, label %66, label %64

64:                                               ; preds = %59
  %65 = tail call noalias ptr (ptr, ptr, ...) @wmem_strdup_printf(ptr noundef null, ptr noundef nonnull @.str.1695, i32 noundef %61, i32 noundef %63)
  br label %.sink.split

66:                                               ; preds = %59
  %67 = getelementptr inbounds nuw i8, ptr %0, i64 96
  %68 = load i32, ptr %67, align 8
  %.not48 = icmp eq i32 %68, %61
  br i1 %.not48, label %71, label %69

69:                                               ; preds = %66
  %70 = tail call noalias ptr (ptr, ptr, ...) @wmem_strdup_printf(ptr noundef null, ptr noundef nonnull @.str.1696, i32 noundef %68, i32 noundef %61)
  br label %.sink.split

.sink.split:                                      ; preds = %5, %10, %43, %52, %57, %64, %69
  %.sink = phi ptr [ %70, %69 ], [ %65, %64 ], [ %58, %57 ], [ %53, %52 ], [ %46, %43 ], [ %11, %10 ], [ %6, %5 ]
  store ptr %.sink, ptr %1, align 8
  br label %71

71:                                               ; preds = %.sink.split, %66
  %.0 = phi i1 [ true, %66 ], [ false, %.sink.split ]
  ret i1 %.0
}